; Function Attrs: nounwind uwtable
define internal noundef i32 @H5C__epoch_marker_pre_serialize(ptr readnone captures(none) %0, ptr readnone captures(none) %1, i64 %2, i64 %3, ptr readnone captures(none) %4, ptr readnone captures(none) %5, ptr readnone captures(none) %6) #0 {
  %8 = load i8, ptr @H5C_init_g, align 1, !tbaa !3, !range !7, !noundef !8
  %9 = trunc nuw i8 %8 to i1
  %10 = load i8, ptr @H5_libterm_g, align 1, !range !7
  %11 = trunc nuw i8 %10 to i1
  %12 = xor i1 %11, true
  %13 = select i1 %9, i1 true, i1 %12
  br i1 %13, label %14, label %18, !prof !9

14:                                               ; preds = %7
  %15 = load i64, ptr @H5E_CACHE_g, align 8, !tbaa !10
  %16 = load i64, ptr @H5E_SYSTEM_g, align 8, !tbaa !10
  %17 = tail call i32 (ptr, ptr, i32, i64, i64, ptr, ...) @H5E_printf_stack(ptr noundef nonnull @.str.1, ptr noundef nonnull @__func__.H5C__epoch_marker_pre_serialize, i32 noundef 171, i64 noundef %15, i64 noundef %16, ptr noundef nonnull @.str.2) #2
  br label %18

18:                                               ; preds = %14, %7
  ret i32 -1
}